; Function Attrs: mustprogress uwtable
define void @_ZNK17TriOptimizePlugin16pythonFilterNameEi(ptr dead_on_unwind noalias writable sret(%class.QString) align 8 %0, ptr nocapture noundef nonnull readnone align 8 dereferenceable(80) %1, i32 noundef %2) unnamed_addr #9 align 2 {
  switch i32 %2, label %7 [
    i32 1, label %4
    i32 0, label %5
    i32 2, label %6
  ]

4:                                                ; preds = %3
  tail call void @_ZNK11QMetaObject2trEPKcS1_i(ptr dead_on_unwind writable sret(%class.QString) align 8 %0, ptr noundef nonnull align 8 dereferenceable(48) @_ZN17TriOptimizePlugin16staticMetaObjectE, ptr noundef nonnull @.str.8, ptr noundef null, i32 noundef -1)
  br label %8

5:                                                ; preds = %3
  tail call void @_ZNK11QMetaObject2trEPKcS1_i(ptr dead_on_unwind writable sret(%class.QString) align 8 %0, ptr noundef nonnull align 8 dereferenceable(48) @_ZN17TriOptimizePlugin16staticMetaObjectE, ptr noundef nonnull @.str.9, ptr noundef null, i32 noundef -1)
  br label %8

6:                                                ; preds = %3
  tail call void @_ZNK11QMetaObject2trEPKcS1_i(ptr dead_on_unwind writable sret(%class.QString) align 8 %0, ptr noundef nonnull align 8 dereferenceable(48) @_ZN17TriOptimizePlugin16staticMetaObjectE, ptr noundef nonnull @.str.10, ptr noundef null, i32 noundef -1)
  br label %8

7:                                                ; preds = %3
  store ptr @_ZN10QArrayData11shared_nullE, ptr %0, align 8
  br label %8

8:                                                ; preds = %7, %6, %5, %4
  ret void
}